; Function Attrs: mustprogress uwtable
define noundef nonnull align 8 dereferenceable(48) ptr @_ZN6icu_7513LocaleBuilder11setLanguageENS_11StringPieceE(ptr noundef nonnull returned align 8 dereferenceable(48) %this, ptr %language.coerce0, i32 %language.coerce1) local_unnamed_addr #1 align 2 {
entry:
  %language_ = getelementptr inbounds i8, ptr %this, i64 12
  %status_ = getelementptr inbounds i8, ptr %this, i64 8
  %0 = load i32, ptr %status_, align 8
  %cmp.i.i = icmp slt i32 %0, 1
  br i1 %cmp.i.i, label %if.end.i, label %_ZN6icu_75L8setFieldENS_11StringPieceEPcR10UErrorCodePFaPKciE.exit

if.end.i:                                         ; preds = %entry
  %cmp.i4.not.i = icmp eq i32 %language.coerce1, 0
  br i1 %cmp.i4.not.i, label %if.then3.i, label %if.else.i

if.then3.i:                                       ; preds = %if.end.i
  store i8 0, ptr %language_, align 4
  br label %_ZN6icu_75L8setFieldENS_11StringPieceEPcR10UErrorCodePFaPKciE.exit

if.else.i:                                        ; preds = %if.end.i
  %call6.i = tail call noundef signext i8 @ultag_isLanguageSubtag_75(ptr noundef %language.coerce0, i32 noundef %language.coerce1), !callees !4
  %tobool7.not.i = icmp eq i8 %call6.i, 0
  br i1 %tobool7.not.i, label %if.else13.i, label %do.body.i

do.body.i:                                        ; preds = %if.else.i
  %conv.i = sext i32 %language.coerce1 to i64
  tail call void @llvm.memcpy.p0.p0.i64(ptr nonnull align 4 %language_, ptr align 1 %language.coerce0, i64 %conv.i, i1 false)
  %arrayidx12.i = getelementptr inbounds i8, ptr %language_, i64 %conv.i
  store i8 0, ptr %arrayidx12.i, align 1
  br label %_ZN6icu_75L8setFieldENS_11StringPieceEPcR10UErrorCodePFaPKciE.exit

if.else13.i:                                      ; preds = %if.else.i
  store i32 1, ptr %status_, align 8
  br label %_ZN6icu_75L8setFieldENS_11StringPieceEPcR10UErrorCodePFaPKciE.exit

_ZN6icu_75L8setFieldENS_11StringPieceEPcR10UErrorCodePFaPKciE.exit: ; preds = %entry, %if.then3.i, %do.body.i, %if.else13.i
  ret ptr %this
}